; Function Attrs: nounwind uwtable
define hidden void @zif_ob_implicit_flush(ptr noundef readonly captures(none) %0, ptr noundef readnone captures(none) %1) local_unnamed_addr #0 {
  %3 = alloca i64, align 8
  call void @llvm.lifetime.start.p0(i64 8, ptr nonnull %3) #22
  store i64 1, ptr %3, align 8, !tbaa !87
  %4 = getelementptr inbounds nuw i8, ptr %0, i64 44
  %5 = load i32, ptr %4, align 4, !tbaa !8
  %6 = call i32 (i32, ptr, ...) @zend_parse_parameters(i32 noundef %5, ptr noundef nonnull @.str.14, ptr noundef nonnull %3) #22
  %7 = icmp eq i32 %6, -1
  br i1 %7, label %8, label %11

8:                                                ; preds = %2
  %9 = load ptr, ptr getelementptr inbounds nuw (i8, ptr @executor_globals, i64 960), align 8, !tbaa !112
  %10 = icmp ne ptr %9, null
  call void @llvm.assume(i1 %10)
  br label %16

11:                                               ; preds = %2
  %12 = load i64, ptr %3, align 8, !tbaa !87
  %13 = and i64 %12, 4294967295
  %.not.i = icmp ne i64 %13, 0
  %14 = load i32, ptr getelementptr inbounds nuw (i8, ptr @output_globals, i64 52), align 4
  %15 = and i32 %14, -2
  %masksel.i = zext i1 %.not.i to i32
  %storemerge.i = or disjoint i32 %15, %masksel.i
  store i32 %storemerge.i, ptr getelementptr inbounds nuw (i8, ptr @output_globals, i64 52), align 4, !tbaa !11
  br label %16

16:                                               ; preds = %11, %8
  call void @llvm.lifetime.end.p0(i64 8, ptr nonnull %3) #22
  ret void
}